; Listing generated by Microsoft (R) Optimizing Compiler Version 19.00.24215.1 

	TITLE	D:\!!Scene\rw2018\Outside\src\ext.cpp
	.686P
	.XMM
	include listing.inc
	.model	flat

INCLUDELIB LIBCMT
INCLUDELIB OLDNAMES

PUBLIC	?myglfunc@@3PAPAXA				; myglfunc
_BSS	SEGMENT
?myglfunc@@3PAPAXA DD 0eH DUP (?)			; myglfunc
_BSS	ENDS
PUBLIC	?EXT_Init@@YGHXZ				; EXT_Init
PUBLIC	??_C@_0BH@BOJGDFJN@glCreateShaderProgramv?$AA@	; `string'
PUBLIC	??_C@_0BG@CCBKOCA@glGenProgramPipelines?$AA@	; `string'
PUBLIC	??_C@_0BG@GLPOKNCG@glBindProgramPipeline?$AA@	; `string'
PUBLIC	??_C@_0BD@CADKHDMH@glUseProgramStages?$AA@	; `string'
PUBLIC	??_C@_0BE@KBMHINLC@glProgramUniform4fv?$AA@	; `string'
PUBLIC	??_C@_0BC@FAPEBGID@glGenFramebuffers?$AA@	; `string'
PUBLIC	??_C@_0BC@CJMIBNO@glBindFramebuffer?$AA@	; `string'
PUBLIC	??_C@_0P@LAPAEKEH@glTexStorage2D?$AA@		; `string'
PUBLIC	??_C@_0O@COHJKDBH@glDrawBuffers?$AA@		; `string'
PUBLIC	??_C@_0BF@ENLMLILA@glFramebufferTexture?$AA@	; `string'
PUBLIC	??_C@_0BA@KOBBIKOF@glActiveTexture?$AA@		; `string'
PUBLIC	??_C@_0BB@BHNIMGDM@glGenerateMipmap?$AA@	; `string'
PUBLIC	??_C@_0P@FMMDFLCO@glGetProgramiv?$AA@		; `string'
PUBLIC	??_C@_0BE@DHGHAJFL@glGetProgramInfoLog?$AA@	; `string'
EXTRN	__imp__wglGetProcAddress@4:PROC
;	COMDAT ??_C@_0BE@DHGHAJFL@glGetProgramInfoLog?$AA@
CONST	SEGMENT
??_C@_0BE@DHGHAJFL@glGetProgramInfoLog?$AA@ DB 'glGetProgramInfoLog', 00H ; `string'
CONST	ENDS
;	COMDAT ??_C@_0P@FMMDFLCO@glGetProgramiv?$AA@
CONST	SEGMENT
??_C@_0P@FMMDFLCO@glGetProgramiv?$AA@ DB 'glGetProgramiv', 00H ; `string'
CONST	ENDS
;	COMDAT ??_C@_0BB@BHNIMGDM@glGenerateMipmap?$AA@
CONST	SEGMENT
??_C@_0BB@BHNIMGDM@glGenerateMipmap?$AA@ DB 'glGenerateMipmap', 00H ; `string'
CONST	ENDS
;	COMDAT ??_C@_0BA@KOBBIKOF@glActiveTexture?$AA@
CONST	SEGMENT
??_C@_0BA@KOBBIKOF@glActiveTexture?$AA@ DB 'glActiveTexture', 00H ; `string'
CONST	ENDS
;	COMDAT ??_C@_0BF@ENLMLILA@glFramebufferTexture?$AA@
CONST	SEGMENT
??_C@_0BF@ENLMLILA@glFramebufferTexture?$AA@ DB 'glFramebufferTexture', 00H ; `string'
CONST	ENDS
;	COMDAT ??_C@_0O@COHJKDBH@glDrawBuffers?$AA@
CONST	SEGMENT
??_C@_0O@COHJKDBH@glDrawBuffers?$AA@ DB 'glDrawBuffers', 00H ; `string'
CONST	ENDS
;	COMDAT ??_C@_0P@LAPAEKEH@glTexStorage2D?$AA@
CONST	SEGMENT
??_C@_0P@LAPAEKEH@glTexStorage2D?$AA@ DB 'glTexStorage2D', 00H ; `string'
CONST	ENDS
;	COMDAT ??_C@_0BC@CJMIBNO@glBindFramebuffer?$AA@
CONST	SEGMENT
??_C@_0BC@CJMIBNO@glBindFramebuffer?$AA@ DB 'glBindFramebuffer', 00H ; `string'
CONST	ENDS
;	COMDAT ??_C@_0BC@FAPEBGID@glGenFramebuffers?$AA@
CONST	SEGMENT
??_C@_0BC@FAPEBGID@glGenFramebuffers?$AA@ DB 'glGenFramebuffers', 00H ; `string'
CONST	ENDS
;	COMDAT ??_C@_0BE@KBMHINLC@glProgramUniform4fv?$AA@
CONST	SEGMENT
??_C@_0BE@KBMHINLC@glProgramUniform4fv?$AA@ DB 'glProgramUniform4fv', 00H ; `string'
CONST	ENDS
;	COMDAT ??_C@_0BD@CADKHDMH@glUseProgramStages?$AA@
CONST	SEGMENT
??_C@_0BD@CADKHDMH@glUseProgramStages?$AA@ DB 'glUseProgramStages', 00H ; `string'
CONST	ENDS
;	COMDAT ??_C@_0BG@GLPOKNCG@glBindProgramPipeline?$AA@
CONST	SEGMENT
??_C@_0BG@GLPOKNCG@glBindProgramPipeline?$AA@ DB 'glBindProgramPipeline', 00H ; `string'
CONST	ENDS
;	COMDAT ??_C@_0BG@CCBKOCA@glGenProgramPipelines?$AA@
CONST	SEGMENT
??_C@_0BG@CCBKOCA@glGenProgramPipelines?$AA@ DB 'glGenProgramPipelines', 00H ; `string'
CONST	ENDS
;	COMDAT ??_C@_0BH@BOJGDFJN@glCreateShaderProgramv?$AA@
CONST	SEGMENT
??_C@_0BH@BOJGDFJN@glCreateShaderProgramv?$AA@ DB 'glCreateShaderProgramv'
	DB	00H						; `string'
CONST	ENDS
_DATA	SEGMENT
?strs@@3PAPADA DD FLAT:??_C@_0BH@BOJGDFJN@glCreateShaderProgramv?$AA@ ; strs
	DD	FLAT:??_C@_0BG@CCBKOCA@glGenProgramPipelines?$AA@
	DD	FLAT:??_C@_0BG@GLPOKNCG@glBindProgramPipeline?$AA@
	DD	FLAT:??_C@_0BD@CADKHDMH@glUseProgramStages?$AA@
	DD	FLAT:??_C@_0BE@KBMHINLC@glProgramUniform4fv?$AA@
	DD	FLAT:??_C@_0BC@FAPEBGID@glGenFramebuffers?$AA@
	DD	FLAT:??_C@_0BC@CJMIBNO@glBindFramebuffer?$AA@
	DD	FLAT:??_C@_0P@LAPAEKEH@glTexStorage2D?$AA@
	DD	FLAT:??_C@_0O@COHJKDBH@glDrawBuffers?$AA@
	DD	FLAT:??_C@_0BF@ENLMLILA@glFramebufferTexture?$AA@
	DD	FLAT:??_C@_0BA@KOBBIKOF@glActiveTexture?$AA@
	DD	FLAT:??_C@_0BB@BHNIMGDM@glGenerateMipmap?$AA@
	DD	FLAT:??_C@_0P@FMMDFLCO@glGetProgramiv?$AA@
	DD	FLAT:??_C@_0BE@DHGHAJFL@glGetProgramInfoLog?$AA@
_DATA	ENDS
; Function compile flags: /Ogspy
; File d:\!!scene\rw2018\outside\src\ext.cpp
;	COMDAT ?EXT_Init@@YGHXZ
_TEXT	SEGMENT
?EXT_Init@@YGHXZ PROC					; EXT_Init, COMDAT

; 37   : {

	push	esi

; 38   :     for( int i=0; i<NUMFUNCTIONS; i++ )

	xor	esi, esi
$LL4@EXT_Init:

; 39   :     {
; 40   :         #ifdef WINDOWS
; 41   :             myglfunc[i] = wglGetProcAddress( strs[i] );

	push	DWORD PTR ?strs@@3PAPADA[esi]
	call	DWORD PTR __imp__wglGetProcAddress@4
	mov	DWORD PTR ?myglfunc@@3PAPAXA[esi], eax

; 42   :         #endif
; 43   :         #ifdef LINUX
; 44   :             glXGetProcAddress( (const unsigned char *)strs[i] );
; 45   :         #endif
; 46   :         if( !myglfunc[i] )

	test	eax, eax
	je	SHORT $LN8@EXT_Init

; 38   :     for( int i=0; i<NUMFUNCTIONS; i++ )

	add	esi, 4
	cmp	esi, 56					; 00000038H
	jl	SHORT $LL4@EXT_Init

; 48   :     }
; 49   :     return( 1 );

	xor	eax, eax
	inc	eax
	pop	esi

; 50   : }

	ret	0
$LN8@EXT_Init:

; 47   :             return( 0 );

	xor	eax, eax
	pop	esi

; 50   : }

	ret	0
?EXT_Init@@YGHXZ ENDP					; EXT_Init
_TEXT	ENDS
END
